; Function Attrs: mustprogress nounwind uwtable
define noundef i32 @_ZN7glslang12TScanContext6matNxMEv(ptr noundef nonnull align 8 dereferenceable(76) initializes((16, 17)) %0) local_unnamed_addr #0 align 2 {
  %2 = getelementptr inbounds nuw i8, ptr %0, i64 16
  store i8 1, ptr %2, align 8
  %3 = getelementptr inbounds nuw i8, ptr %0, i64 8
  %4 = load ptr, ptr %3, align 8
  %5 = getelementptr inbounds nuw i8, ptr %4, i64 24
  %6 = load i32, ptr %5, align 8
  %7 = icmp sgt i32 %6, 110
  br i1 %7, label %8, label %11

8:                                                ; preds = %1
  %9 = getelementptr inbounds nuw i8, ptr %0, i64 72
  %10 = load i32, ptr %9, align 8
  br label %24

11:                                               ; preds = %1
  %12 = getelementptr inbounds nuw i8, ptr %4, i64 8
  %13 = load i8, ptr %12, align 8
  %14 = trunc i8 %13 to i1
  br i1 %14, label %15, label %22

15:                                               ; preds = %11
  %16 = getelementptr inbounds nuw i8, ptr %0, i64 24
  %17 = getelementptr inbounds nuw i8, ptr %0, i64 64
  %18 = load ptr, ptr %17, align 8
  %19 = load ptr, ptr %4, align 8
  %20 = getelementptr inbounds nuw i8, ptr %19, i64 352
  %21 = load ptr, ptr %20, align 8
  tail call void (ptr, ptr, ptr, ptr, ptr, ...) %21(ptr noundef nonnull align 8 dereferenceable(1280) %4, ptr noundef nonnull align 8 dereferenceable(24) %16, ptr noundef nonnull @.str.506, ptr noundef %18, ptr noundef nonnull @.str.446) #15
  br label %22

22:                                               ; preds = %15, %11
  %23 = tail call noundef i32 @_ZN7glslang12TScanContext16identifierOrTypeEv(ptr noundef nonnull align 8 dereferenceable(76) %0)
  br label %24

24:                                               ; preds = %22, %8
  %.0 = phi i32 [ %10, %8 ], [ %23, %22 ]
  ret i32 %.0
}